; ModuleID = '31/261.c'
source_filename = "31/261.c"
target datalayout = "e-m:e-p270:32:32-p271:32:32-p272:64:64-i64:64-f80:128-n8:16:32:64-S128"
target triple = "x86_64-pc-linux-gnu"

%struct.student = type { [500 x i8], %struct.student* }

@.str = private unnamed_addr constant [4 x i8] c"end\00", align 1

; Function Attrs: noinline nounwind uwtable
define dso_local void @main() #0 {
  %1 = alloca [500 x i8], align 16
  %2 = alloca %struct.student*, align 8
  %3 = alloca %struct.student*, align 8
  %4 = alloca %struct.student*, align 8
  store %struct.student* null, %struct.student** %2, align 8
  br label %5

5:                                                ; preds = %12, %0
  %6 = getelementptr inbounds [500 x i8], [500 x i8]* %1, i64 0, i64 0
  %7 = call i32 (i8*, ...) bitcast (i32 (...)* @gets to i32 (i8*, ...)*)(i8* %6)
  %8 = sext i32 %7 to i64
  %9 = inttoptr i64 %8 to i8*
  %10 = call i32 @strcmp(i8* %9, i8* getelementptr inbounds ([4 x i8], [4 x i8]* @.str, i64 0, i64 0)) #4
  %11 = icmp ne i32 %10, 0
  br i1 %11, label %12, label %24

12:                                               ; preds = %5
  %13 = call noalias i8* @malloc(i64 100) #5
  %14 = bitcast i8* %13 to %struct.student*
  store %struct.student* %14, %struct.student** %3, align 8
  %15 = load %struct.student*, %struct.student** %3, align 8
  %16 = getelementptr inbounds %struct.student, %struct.student* %15, i32 0, i32 0
  %17 = getelementptr inbounds [500 x i8], [500 x i8]* %16, i64 0, i64 0
  %18 = getelementptr inbounds [500 x i8], [500 x i8]* %1, i64 0, i64 0
  %19 = call i8* @strcpy(i8* %17, i8* %18) #5
  %20 = load %struct.student*, %struct.student** %2, align 8
  %21 = load %struct.student*, %struct.student** %3, align 8
  %22 = getelementptr inbounds %struct.student, %struct.student* %21, i32 0, i32 1
  store %struct.student* %20, %struct.student** %22, align 8
  %23 = load %struct.student*, %struct.student** %3, align 8
  store %struct.student* %23, %struct.student** %2, align 8
  br label %5

24:                                               ; preds = %5
  %25 = load %struct.student*, %struct.student** %2, align 8
  store %struct.student* %25, %struct.student** %4, align 8
  br label %26

26:                                               ; preds = %35, %24
  %27 = load %struct.student*, %struct.student** %4, align 8
  %28 = getelementptr inbounds %struct.student, %struct.student* %27, i32 0, i32 0
  %29 = getelementptr inbounds [500 x i8], [500 x i8]* %28, i64 0, i64 0
  %30 = call i32 @puts(i8* %29)
  %31 = load %struct.student*, %struct.student** %4, align 8
  %32 = getelementptr inbounds %struct.student, %struct.student* %31, i32 0, i32 1
  %33 = load %struct.student*, %struct.student** %32, align 8
  store %struct.student* %33, %struct.student** %4, align 8
  %34 = call i32 @putchar(i32 10)
  br label %35

35:                                               ; preds = %26
  %36 = load %struct.student*, %struct.student** %4, align 8
  %37 = icmp ne %struct.student* %36, null
  br i1 %37, label %26, label %38

38:                                               ; preds = %35
  ret void
}

; Function Attrs: nounwind readonly
declare dso_local i32 @strcmp(i8*, i8*) #1

declare dso_local i32 @gets(...) #2

; Function Attrs: nounwind
declare dso_local noalias i8* @malloc(i64) #3

; Function Attrs: nounwind
declare dso_local i8* @strcpy(i8*, i8*) #3

declare dso_local i32 @puts(i8*) #2

declare dso_local i32 @putchar(i32) #2


!llvm.module.flags = !{!0}
!llvm.ident = !{!1}

!0 = !{i32 1, !"wchar_size", i32 4}
!1 = !{!"clang version 10.0.0-4ubuntu1 "}
