; ModuleID = 'source-C-CXX/30/261.c'
source_filename = "source-C-CXX/30/261.c"
target datalayout = "e-m:e-p270:32:32-p271:32:32-p272:64:64-i64:64-f80:128-n8:16:32:64-S128"
target triple = "x86_64-pc-linux-gnu"

%struct._IO_FILE = type { i32, i8*, i8*, i8*, i8*, i8*, i8*, i8*, i8*, i8*, i8*, i8*, %struct._IO_marker*, %struct._IO_FILE*, i32, i32, i64, i16, i8, [1 x i8], i8*, i64, %struct._IO_codecvt*, %struct._IO_wide_data*, %struct._IO_FILE*, i8*, i64, i32, [20 x i8] }
%struct._IO_marker = type opaque
%struct._IO_codecvt = type opaque
%struct._IO_wide_data = type opaque
%struct.student = type { [500 x i8], %struct.student* }

@.str = private unnamed_addr constant [4 x i8] c"end\00", align 1
@stdout = external local_unnamed_addr global %struct._IO_FILE*, align 8

; Function Attrs: nounwind sspstrong uwtable
define dso_local void @main() local_unnamed_addr #0 {
  %1 = alloca [500 x i8], align 16
  %2 = getelementptr inbounds [500 x i8], [500 x i8]* %1, i64 0, i64 0
  call void @llvm.lifetime.start.p0i8(i64 500, i8* nonnull %2) #7
  %3 = call i32 (i8*, ...) bitcast (i32 (...)* @gets to i32 (i8*, ...)*)(i8* nonnull %2) #7
  br label %6

4:                                                ; preds = %6
  %5 = bitcast i8* %8 to %struct.student*
  br label %18

6:                                                ; preds = %0, %6
  %7 = phi %struct.student* [ %9, %6 ], [ null, %0 ]
  %8 = call noalias align 16 dereferenceable_or_null(100) i8* @malloc(i64 100) #7
  %9 = bitcast i8* %8 to %struct.student*
  %10 = getelementptr inbounds %struct.student, %struct.student* %9, i64 0, i32 0, i64 0
  %11 = call i8* @strcpy(i8* noundef nonnull dereferenceable(1) %10, i8* noundef nonnull %2) #7
  %12 = getelementptr inbounds %struct.student, %struct.student* %9, i64 0, i32 1
  store %struct.student* %7, %struct.student** %12, align 8, !tbaa !5
  %13 = call i32 (i8*, ...) bitcast (i32 (...)* @gets to i32 (i8*, ...)*)(i8* nonnull %2) #7
  %14 = sext i32 %13 to i64
  %15 = inttoptr i64 %14 to i8*
  %16 = call i32 @strcmp(i8* noundef nonnull dereferenceable(1) %15, i8* noundef nonnull dereferenceable(4) getelementptr inbounds ([4 x i8], [4 x i8]* @.str, i64 0, i64 0)) #8
  %17 = icmp eq i32 %16, 0
  br i1 %17, label %4, label %6, !llvm.loop !10

18:                                               ; preds = %4, %18
  %19 = phi %struct.student* [ %23, %18 ], [ %5, %4 ]
  %20 = getelementptr inbounds %struct.student, %struct.student* %19, i64 0, i32 0, i64 0
  %21 = call i32 @puts(i8* nonnull dereferenceable(1) %20)
  %22 = getelementptr inbounds %struct.student, %struct.student* %19, i64 0, i32 1
  %23 = load %struct.student*, %struct.student** %22, align 8, !tbaa !5
  %24 = load %struct._IO_FILE*, %struct._IO_FILE** @stdout, align 8, !tbaa !12
  %25 = call i32 @putc(i32 10, %struct._IO_FILE* %24) #7
  %26 = icmp eq %struct.student* %23, null
  br i1 %26, label %27, label %18, !llvm.loop !13

27:                                               ; preds = %18
  call void @llvm.lifetime.end.p0i8(i64 500, i8* nonnull %2) #7
  ret void
}

; Function Attrs: argmemonly mustprogress nofree nosync nounwind willreturn
declare void @llvm.lifetime.start.p0i8(i64 immarg, i8* nocapture) #1

; Function Attrs: argmemonly mustprogress nofree nounwind readonly willreturn
declare i32 @strcmp(i8* nocapture, i8* nocapture) local_unnamed_addr #2

declare i32 @gets(...) local_unnamed_addr #3

; Function Attrs: inaccessiblememonly mustprogress nofree nounwind willreturn
declare noalias noundef align 16 i8* @malloc(i64 noundef) local_unnamed_addr #4

; Function Attrs: argmemonly mustprogress nofree nounwind willreturn
declare i8* @strcpy(i8* noalias returned writeonly, i8* noalias nocapture readonly) local_unnamed_addr #5

; Function Attrs: nofree nounwind
declare noundef i32 @puts(i8* nocapture noundef readonly) local_unnamed_addr #6

; Function Attrs: argmemonly mustprogress nofree nosync nounwind willreturn
declare void @llvm.lifetime.end.p0i8(i64 immarg, i8* nocapture) #1

; Function Attrs: nofree nounwind
declare noundef i32 @putc(i32 noundef, %struct._IO_FILE* nocapture noundef) local_unnamed_addr #6


!llvm.module.flags = !{!0, !1, !2, !3}
!llvm.ident = !{!4}

!0 = !{i32 1, !"wchar_size", i32 4}
!1 = !{i32 7, !"PIC Level", i32 2}
!2 = !{i32 7, !"PIE Level", i32 2}
!3 = !{i32 7, !"uwtable", i32 1}
!4 = !{!"clang version 13.0.0"}
!5 = !{!6, !9, i64 504}
!6 = !{!"student", !7, i64 0, !9, i64 504}
!7 = !{!"omnipotent char", !8, i64 0}
!8 = !{!"Simple C/C++ TBAA"}
!9 = !{!"any pointer", !7, i64 0}
!10 = distinct !{!10, !11}
!11 = !{!"llvm.loop.mustprogress"}
!12 = !{!9, !9, i64 0}
!13 = distinct !{!13, !11}
